target datalayout = "e-m:e-p270:32:32-p271:32:32-p272:64:64-i64:64-i128:128-f80:128-n8:16:32:64-S128"
target triple = "x86_64-pc-linux-gnu"

%"struct.Yosys::RTLIL::Const" = type { i16, i8, %union.anon }
%union.anon = type { %"class.std::__cxx11::basic_string" }
%"class.std::__cxx11::basic_string" = type { %"struct.std::__cxx11::basic_string<char>::_Alloc_hider", i64, %union.anon.3 }
%"struct.std::__cxx11::basic_string<char>::_Alloc_hider" = type { ptr }
%union.anon.3 = type { i64, [8 x i8] }
%"struct.std::_Vector_base" = type { %"struct.std::_Vector_base<Yosys::RTLIL::State, std::allocator<Yosys::RTLIL::State>>::_Vector_impl" }
%"struct.std::_Vector_base<Yosys::RTLIL::State, std::allocator<Yosys::RTLIL::State>>::_Vector_impl" = type { %"struct.std::_Vector_base<Yosys::RTLIL::State, std::allocator<Yosys::RTLIL::State>>::_Vector_impl_data" }
%"struct.std::_Vector_base<Yosys::RTLIL::State, std::allocator<Yosys::RTLIL::State>>::_Vector_impl_data" = type { ptr, ptr, ptr }
%"class.Yosys::RTLIL::Const::const_iterator" = type { ptr, i64 }
%"class.__gnu_cxx::__normal_iterator" = type { ptr }

; Function Attrs: mustprogress nounwind uwtable
define linkonce_odr void @_ZN9__gnu_cxx17__normal_iteratorIPN5Yosys5RTLIL5StateESt6vectorIS3_SaIS3_EEEC2ERKS4_(ptr noundef nonnull align 8 dereferenceable(8) %0, ptr noundef nonnull align 8 dereferenceable(8) %1) unnamed_addr #6 comdat align 2 {
  %3 = alloca ptr, align 8
  %4 = alloca ptr, align 8
  store ptr %0, ptr %3, align 8, !tbaa !80
  store ptr %1, ptr %4, align 8, !tbaa !96
  %5 = load ptr, ptr %3, align 8
  %6 = getelementptr inbounds nuw %"class.__gnu_cxx::__normal_iterator", ptr %5, i32 0, i32 0
  %7 = load ptr, ptr %4, align 8, !tbaa !96
  %8 = load ptr, ptr %7, align 8, !tbaa !28
  store ptr %8, ptr %6, align 8, !tbaa !82
  ret void
}

; Function Attrs: mustprogress nounwind uwtable
define linkonce_odr noundef nonnull align 1 dereferenceable(1) ptr @_ZNK9__gnu_cxx17__normal_iteratorIPN5Yosys5RTLIL5StateESt6vectorIS3_SaIS3_EEEdeEv(ptr noundef nonnull align 8 dereferenceable(8) %0) #6 comdat align 2 {
  %2 = alloca ptr, align 8
  store ptr %0, ptr %2, align 8, !tbaa !80
  %3 = load ptr, ptr %2, align 8
  %4 = getelementptr inbounds nuw %"class.__gnu_cxx::__normal_iterator", ptr %3, i32 0, i32 0
  %5 = load ptr, ptr %4, align 8, !tbaa !82
  ret ptr %5
}

; Function Attrs: mustprogress nounwind uwtable
define linkonce_odr ptr @_ZNSt6vectorIN5Yosys5RTLIL5StateESaIS2_EE5beginEv(ptr noundef nonnull align 8 dereferenceable(24) %0) #6 comdat align 2 {
  %2 = alloca %"class.__gnu_cxx::__normal_iterator", align 8
  %3 = alloca ptr, align 8
  store ptr %0, ptr %3, align 8, !tbaa !22
  %4 = load ptr, ptr %3, align 8
  %5 = getelementptr inbounds nuw %"struct.std::_Vector_base", ptr %4, i32 0, i32 0
  %6 = getelementptr inbounds nuw %"struct.std::_Vector_base<Yosys::RTLIL::State, std::allocator<Yosys::RTLIL::State>>::_Vector_impl_data", ptr %5, i32 0, i32 0
  call void @_ZN9__gnu_cxx17__normal_iteratorIPN5Yosys5RTLIL5StateESt6vectorIS3_SaIS3_EEEC2ERKS4_(ptr noundef nonnull align 8 dereferenceable(8) %2, ptr noundef nonnull align 8 dereferenceable(8) %6) #3
  %7 = getelementptr inbounds nuw %"class.__gnu_cxx::__normal_iterator", ptr %2, i32 0, i32 0
  %8 = load ptr, ptr %7, align 8
  ret ptr %8
}

; Function Attrs: mustprogress nounwind uwtable
define linkonce_odr void @_ZN5Yosys5RTLIL5Const14const_iteratorC2ERKS1_m(ptr noundef nonnull align 8 dereferenceable(16) %0, ptr noundef nonnull align 8 dereferenceable(40) %1, i64 noundef %2) unnamed_addr #6 comdat align 2 {
  %4 = alloca ptr, align 8
  %5 = alloca ptr, align 8
  %6 = alloca i64, align 8
  store ptr %0, ptr %4, align 8, !tbaa !62
  store ptr %1, ptr %5, align 8, !tbaa !6
  store i64 %2, ptr %6, align 8, !tbaa !24
  %7 = load ptr, ptr %4, align 8
  %8 = getelementptr inbounds nuw %"class.Yosys::RTLIL::Const::const_iterator", ptr %7, i32 0, i32 0
  %9 = load ptr, ptr %5, align 8, !tbaa !6
  store ptr %9, ptr %8, align 8, !tbaa !6
  %10 = getelementptr inbounds nuw %"class.Yosys::RTLIL::Const::const_iterator", ptr %7, i32 0, i32 1
  %11 = load i64, ptr %6, align 8, !tbaa !24
  store i64 %11, ptr %10, align 8, !tbaa !66
  ret void
}

; Function Attrs: mustprogress nounwind uwtable
define linkonce_odr noundef nonnull align 1 dereferenceable(1) ptr @_ZNSt6vectorIN5Yosys5RTLIL5StateESaIS2_EE5frontEv(ptr noundef nonnull align 8 dereferenceable(24) %0) #6 comdat align 2 {
  %2 = alloca ptr, align 8
  %3 = alloca %"class.__gnu_cxx::__normal_iterator", align 8
  store ptr %0, ptr %2, align 8, !tbaa !22
  %4 = load ptr, ptr %2, align 8
  call void @llvm.lifetime.start.p0(i64 8, ptr %3) #3
  %5 = call ptr @_ZNSt6vectorIN5Yosys5RTLIL5StateESaIS2_EE5beginEv(ptr noundef nonnull align 8 dereferenceable(24) %4) #3
  %6 = getelementptr inbounds nuw %"class.__gnu_cxx::__normal_iterator", ptr %3, i32 0, i32 0
  store ptr %5, ptr %6, align 8
  %7 = call noundef nonnull align 1 dereferenceable(1) ptr @_ZNK9__gnu_cxx17__normal_iteratorIPN5Yosys5RTLIL5StateESt6vectorIS3_SaIS3_EEEdeEv(ptr noundef nonnull align 8 dereferenceable(8) %3) #3
  call void @llvm.lifetime.end.p0(i64 8, ptr %3) #3
  ret ptr %7
}

; Function Attrs: mustprogress uwtable
define linkonce_odr noundef zeroext i8 @_ZNK5Yosys5RTLIL5Const2atEm(ptr noundef nonnull align 8 dereferenceable(40) %0, i64 noundef %1) #4 comdat align 2 {
  %3 = alloca ptr, align 8
  %4 = alloca i64, align 8
  %5 = alloca %"class.Yosys::RTLIL::Const::const_iterator", align 8
  store ptr %0, ptr %3, align 8, !tbaa !6
  store i64 %1, ptr %4, align 8, !tbaa !24
  %6 = load ptr, ptr %3, align 8
  call void @llvm.lifetime.start.p0(i64 16, ptr %5) #3
  %7 = load i64, ptr %4, align 8, !tbaa !24
  call void @_ZN5Yosys5RTLIL5Const14const_iteratorC2ERKS1_m(ptr noundef nonnull align 8 dereferenceable(16) %5, ptr noundef nonnull align 8 dereferenceable(40) %6, i64 noundef %7)
  %8 = call noundef zeroext i8 @_ZNK5Yosys5RTLIL5Const14const_iteratordeEv(ptr noundef nonnull align 8 dereferenceable(16) %5)
  call void @llvm.lifetime.end.p0(i64 16, ptr %5) #3
  ret i8 %8
}

; Function Attrs: inlinehint mustprogress nounwind uwtable
define linkonce_odr noundef nonnull align 4 dereferenceable(4) ptr @_ZSt3maxIiERKT_S2_S2_(ptr noundef nonnull align 4 dereferenceable(4) %0, ptr noundef nonnull align 4 dereferenceable(4) %1) #7 comdat {
  %3 = alloca ptr, align 8
  %4 = alloca ptr, align 8
  %5 = alloca ptr, align 8
  store ptr %0, ptr %4, align 8, !tbaa !33
  store ptr %1, ptr %5, align 8, !tbaa !33
  %6 = load ptr, ptr %4, align 8, !tbaa !33
  %7 = load i32, ptr %6, align 4, !tbaa !13
  %8 = load ptr, ptr %5, align 8, !tbaa !33
  %9 = load i32, ptr %8, align 4, !tbaa !13
  %10 = icmp slt i32 %7, %9
  br i1 %10, label %11, label %13

11:                                               ; preds = %2
  %12 = load ptr, ptr %5, align 8, !tbaa !33
  store ptr %12, ptr %3, align 8
  br label %15

13:                                               ; preds = %2
  %14 = load ptr, ptr %4, align 8, !tbaa !33
  store ptr %14, ptr %3, align 8
  br label %15

15:                                               ; preds = %13, %11
  %16 = load ptr, ptr %3, align 8
  ret ptr %16
}

; Function Attrs: mustprogress uwtable
define linkonce_odr noundef i32 @_ZN5Yosys7GetSizeINS_5RTLIL5ConstEEEiRKT_(ptr noundef nonnull align 8 dereferenceable(40) %0) #4 comdat {
  %2 = alloca ptr, align 8
  store ptr %0, ptr %2, align 8, !tbaa !6
  %3 = load ptr, ptr %2, align 8, !tbaa !6
  %4 = call noundef i32 @_ZNK5Yosys5RTLIL5Const4sizeEv(ptr noundef nonnull align 8 dereferenceable(40) %3)
  ret i32 %4
}

; Function Attrs: mustprogress uwtable
define void @_ZN5Yosys5RTLIL9const_eqxERKNS0_5ConstES3_bbi(ptr dead_on_unwind noalias writable sret(%"struct.Yosys::RTLIL::Const") align 8 %0, ptr noundef nonnull align 8 dereferenceable(40) %1, ptr noundef nonnull align 8 dereferenceable(40) %2, i1 noundef zeroext %3, i1 noundef zeroext %4, i32 noundef %5) #4 personality ptr @__gxx_personality_v0 {
  %7 = alloca ptr, align 8
  %8 = alloca ptr, align 8
  %9 = alloca ptr, align 8
  %10 = alloca i8, align 1
  %11 = alloca i8, align 1
  %12 = alloca i32, align 4
  %13 = alloca %"struct.Yosys::RTLIL::Const", align 8
  %14 = alloca %"struct.Yosys::RTLIL::Const", align 8
  %15 = alloca ptr, align 8
  %16 = alloca i32, align 4
  %17 = alloca i1, align 1
  %18 = alloca i32, align 4
  %19 = alloca i32, align 4
  %20 = alloca i32, align 4
  %21 = alloca i32, align 4
  %22 = alloca i32, align 4
  store ptr %0, ptr %7, align 8
  store ptr %1, ptr %8, align 8, !tbaa !6
  store ptr %2, ptr %9, align 8, !tbaa !6
  %23 = zext i1 %3 to i8
  store i8 %23, ptr %10, align 1, !tbaa !11
  %24 = zext i1 %4 to i8
  store i8 %24, ptr %11, align 1, !tbaa !11
  store i32 %5, ptr %12, align 4, !tbaa !13
  call void @llvm.lifetime.start.p0(i64 40, ptr %13) #3
  %25 = load ptr, ptr %8, align 8, !tbaa !6
  call void @_ZN5Yosys5RTLIL5ConstC1ERKS1_(ptr noundef nonnull align 8 dereferenceable(40) %13, ptr noundef nonnull align 8 dereferenceable(40) %25)
  call void @llvm.lifetime.start.p0(i64 40, ptr %14) #3
  %26 = load ptr, ptr %9, align 8, !tbaa !6
  invoke void @_ZN5Yosys5RTLIL5ConstC1ERKS1_(ptr noundef nonnull align 8 dereferenceable(40) %14, ptr noundef nonnull align 8 dereferenceable(40) %26)
          to label %27 unwind label %61

27:                                               ; preds = %6
  store i1 false, ptr %17, align 1
  %28 = load i32, ptr %12, align 4, !tbaa !13
  invoke void @_ZN5Yosys5RTLIL5ConstC1ENS0_5StateEi(ptr noundef nonnull align 8 dereferenceable(40) %0, i8 noundef zeroext 0, i32 noundef %28)
          to label %29 unwind label %65

29:                                               ; preds = %27
  call void @llvm.lifetime.start.p0(i64 4, ptr %18) #3
  call void @llvm.lifetime.start.p0(i64 4, ptr %19) #3
  %30 = invoke noundef i32 @_ZN5Yosys7GetSizeINS_5RTLIL5ConstEEEiRKT_(ptr noundef nonnull align 8 dereferenceable(40) %13)
          to label %31 unwind label %69

31:                                               ; preds = %29
  store i32 %30, ptr %19, align 4, !tbaa !13
  call void @llvm.lifetime.start.p0(i64 4, ptr %20) #3
  %32 = invoke noundef i32 @_ZN5Yosys7GetSizeINS_5RTLIL5ConstEEEiRKT_(ptr noundef nonnull align 8 dereferenceable(40) %14)
          to label %33 unwind label %73

33:                                               ; preds = %31
  store i32 %32, ptr %20, align 4, !tbaa !13
  %34 = invoke noundef nonnull align 4 dereferenceable(4) ptr @_ZSt3maxIiERKT_S2_S2_(ptr noundef nonnull align 4 dereferenceable(4) %19, ptr noundef nonnull align 4 dereferenceable(4) %20)
          to label %35 unwind label %73

35:                                               ; preds = %33
  %36 = load i32, ptr %34, align 4, !tbaa !13
  call void @llvm.lifetime.end.p0(i64 4, ptr %20) #3
  call void @llvm.lifetime.end.p0(i64 4, ptr %19) #3
  store i32 %36, ptr %18, align 4, !tbaa !13
  %37 = load i32, ptr %18, align 4, !tbaa !13
  %38 = load i8, ptr %10, align 1, !tbaa !11, !range !15, !noundef !16
  %39 = trunc i8 %38 to i1
  br i1 %39, label %40, label %43

40:                                               ; preds = %35
  %41 = load i8, ptr %11, align 1, !tbaa !11, !range !15, !noundef !16
  %42 = trunc i8 %41 to i1
  br label %43

43:                                               ; preds = %40, %35
  %44 = phi i1 [ false, %35 ], [ %42, %40 ]
  invoke void @_ZN5YosysL9extend_u0ERNS_5RTLIL5ConstEib(ptr noundef nonnull align 8 dereferenceable(40) %13, i32 noundef %37, i1 noundef zeroext %44)
          to label %45 unwind label %78

45:                                               ; preds = %43
  %46 = load i32, ptr %18, align 4, !tbaa !13
  %47 = load i8, ptr %10, align 1, !tbaa !11, !range !15, !noundef !16
  %48 = trunc i8 %47 to i1
  br i1 %48, label %49, label %52

49:                                               ; preds = %45
  %50 = load i8, ptr %11, align 1, !tbaa !11, !range !15, !noundef !16
  %51 = trunc i8 %50 to i1
  br label %52

52:                                               ; preds = %49, %45
  %53 = phi i1 [ false, %45 ], [ %51, %49 ]
  invoke void @_ZN5YosysL9extend_u0ERNS_5RTLIL5ConstEib(ptr noundef nonnull align 8 dereferenceable(40) %14, i32 noundef %46, i1 noundef zeroext %53)
          to label %54 unwind label %78

54:                                               ; preds = %52
  call void @llvm.lifetime.start.p0(i64 4, ptr %21) #3
  store i32 0, ptr %21, align 4, !tbaa !13
  br label %55

55:                                               ; preds = %100, %54
  %56 = load i32, ptr %21, align 4, !tbaa !13
  %57 = invoke noundef i32 @_ZNK5Yosys5RTLIL5Const4sizeEv(ptr noundef nonnull align 8 dereferenceable(40) %13)
          to label %58 unwind label %82

58:                                               ; preds = %55
  %59 = icmp slt i32 %56, %57
  br i1 %59, label %86, label %60

60:                                               ; preds = %58
  store i32 2, ptr %22, align 4
  br label %103

61:                                               ; preds = %6
  %62 = landingpad { ptr, i32 }
          cleanup
  %63 = extractvalue { ptr, i32 } %62, 0
  store ptr %63, ptr %15, align 8
  %64 = extractvalue { ptr, i32 } %62, 1
  store i32 %64, ptr %16, align 4
  br label %115

65:                                               ; preds = %27
  %66 = landingpad { ptr, i32 }
          cleanup
  %67 = extractvalue { ptr, i32 } %66, 0
  store ptr %67, ptr %15, align 8
  %68 = extractvalue { ptr, i32 } %66, 1
  store i32 %68, ptr %16, align 4
  br label %114

69:                                               ; preds = %29
  %70 = landingpad { ptr, i32 }
          cleanup
  %71 = extractvalue { ptr, i32 } %70, 0
  store ptr %71, ptr %15, align 8
  %72 = extractvalue { ptr, i32 } %70, 1
  store i32 %72, ptr %16, align 4
  br label %77

73:                                               ; preds = %33, %31
  %74 = landingpad { ptr, i32 }
          cleanup
  %75 = extractvalue { ptr, i32 } %74, 0
  store ptr %75, ptr %15, align 8
  %76 = extractvalue { ptr, i32 } %74, 1
  store i32 %76, ptr %16, align 4
  call void @llvm.lifetime.end.p0(i64 4, ptr %20) #3
  br label %77

77:                                               ; preds = %73, %69
  call void @llvm.lifetime.end.p0(i64 4, ptr %19) #3
  br label %111

78:                                               ; preds = %105, %52, %43
  %79 = landingpad { ptr, i32 }
          cleanup
  %80 = extractvalue { ptr, i32 } %79, 0
  store ptr %80, ptr %15, align 8
  %81 = extractvalue { ptr, i32 } %79, 1
  store i32 %81, ptr %16, align 4
  br label %111

82:                                               ; preds = %90, %86, %55
  %83 = landingpad { ptr, i32 }
          cleanup
  %84 = extractvalue { ptr, i32 } %83, 0
  store ptr %84, ptr %15, align 8
  %85 = extractvalue { ptr, i32 } %83, 1
  store i32 %85, ptr %16, align 4
  call void @llvm.lifetime.end.p0(i64 4, ptr %21) #3
  br label %111

86:                                               ; preds = %58
  %87 = load i32, ptr %21, align 4, !tbaa !13
  %88 = sext i32 %87 to i64
  %89 = invoke noundef zeroext i8 @_ZNK5Yosys5RTLIL5Const2atEm(ptr noundef nonnull align 8 dereferenceable(40) %13, i64 noundef %88)
          to label %90 unwind label %82

90:                                               ; preds = %86
  %91 = zext i8 %89 to i32
  %92 = load i32, ptr %21, align 4, !tbaa !13
  %93 = sext i32 %92 to i64
  %94 = invoke noundef zeroext i8 @_ZNK5Yosys5RTLIL5Const2atEm(ptr noundef nonnull align 8 dereferenceable(40) %14, i64 noundef %93)
          to label %95 unwind label %82

95:                                               ; preds = %90
  %96 = zext i8 %94 to i32
  %97 = icmp ne i32 %91, %96
  br i1 %97, label %98, label %99

98:                                               ; preds = %95
  store i1 true, ptr %17, align 1
  store i32 1, ptr %22, align 4
  br label %103

99:                                               ; preds = %95
  br label %100

100:                                              ; preds = %99
  %101 = load i32, ptr %21, align 4, !tbaa !13
  %102 = add nsw i32 %101, 1
  store i32 %102, ptr %21, align 4, !tbaa !13
  br label %55, !llvm.loop !51

103:                                              ; preds = %98, %60
  call void @llvm.lifetime.end.p0(i64 4, ptr %21) #3
  %104 = load i32, ptr %22, align 4
  switch i32 %104, label %109 [
    i32 2, label %105
  ]

105:                                              ; preds = %103
  %106 = invoke noundef nonnull align 8 dereferenceable(24) ptr @_ZN5Yosys5RTLIL5Const4bitsEv(ptr noundef nonnull align 8 dereferenceable(40) %0)
          to label %107 unwind label %78

107:                                              ; preds = %105
  %108 = call noundef nonnull align 1 dereferenceable(1) ptr @_ZNSt6vectorIN5Yosys5RTLIL5StateESaIS2_EE5frontEv(ptr noundef nonnull align 8 dereferenceable(24) %106) #3
  store i8 1, ptr %108, align 1, !tbaa !17
  store i1 true, ptr %17, align 1
  store i32 1, ptr %22, align 4
  br label %109

109:                                              ; preds = %107, %103
  call void @llvm.lifetime.end.p0(i64 4, ptr %18) #3
  %110 = load i1, ptr %17, align 1
  br i1 %110, label %113, label %112

111:                                              ; preds = %82, %78, %77
  call void @llvm.lifetime.end.p0(i64 4, ptr %18) #3
  call void @_ZN5Yosys5RTLIL5ConstD1Ev(ptr noundef nonnull align 8 dereferenceable(40) %0) #3
  br label %114

112:                                              ; preds = %109
  call void @_ZN5Yosys5RTLIL5ConstD1Ev(ptr noundef nonnull align 8 dereferenceable(40) %0) #3
  br label %113

113:                                              ; preds = %112, %109
  call void @_ZN5Yosys5RTLIL5ConstD1Ev(ptr noundef nonnull align 8 dereferenceable(40) %14) #3
  call void @llvm.lifetime.end.p0(i64 40, ptr %14) #3
  call void @_ZN5Yosys5RTLIL5ConstD1Ev(ptr noundef nonnull align 8 dereferenceable(40) %13) #3
  call void @llvm.lifetime.end.p0(i64 40, ptr %13) #3
  ret void

114:                                              ; preds = %111, %65
  call void @_ZN5Yosys5RTLIL5ConstD1Ev(ptr noundef nonnull align 8 dereferenceable(40) %14) #3
  br label %115

115:                                              ; preds = %114, %61
  call void @llvm.lifetime.end.p0(i64 40, ptr %14) #3
  call void @_ZN5Yosys5RTLIL5ConstD1Ev(ptr noundef nonnull align 8 dereferenceable(40) %13) #3
  call void @llvm.lifetime.end.p0(i64 40, ptr %13) #3
  br label %116

116:                                              ; preds = %115
  %117 = load ptr, ptr %15, align 8
  %118 = load i32, ptr %16, align 4
  %119 = insertvalue { ptr, i32 } poison, ptr %117, 0
  %120 = insertvalue { ptr, i32 } %119, i32 %118, 1
  resume { ptr, i32 } %120
}