; Function Attrs: mustprogress uwtable
define void @_ZN5Yosys5RTLIL9const_eqxERKNS0_5ConstES3_bbi(ptr dead_on_unwind noalias writable sret(%"struct.Yosys::RTLIL::Const") align 8 %0, ptr noundef nonnull align 8 dereferenceable(40) %1, ptr noundef nonnull align 8 dereferenceable(40) %2, i1 noundef zeroext %3, i1 noundef zeroext %4, i32 noundef %5) local_unnamed_addr #3 personality ptr @__gxx_personality_v0 {
  %7 = alloca %"class.Yosys::RTLIL::Const::const_iterator", align 8
  %8 = alloca %"class.Yosys::RTLIL::Const::const_iterator", align 8
  %9 = alloca %"struct.Yosys::RTLIL::Const", align 8
  %10 = alloca %"struct.Yosys::RTLIL::Const", align 8
  call void @llvm.lifetime.start.p0(i64 40, ptr nonnull %9) #19
  call void @_ZN5Yosys5RTLIL5ConstC1ERKS1_(ptr noundef nonnull align 8 dereferenceable(40) %9, ptr noundef nonnull align 8 dereferenceable(40) %1)
  call void @llvm.lifetime.start.p0(i64 40, ptr nonnull %10) #19
  invoke void @_ZN5Yosys5RTLIL5ConstC1ERKS1_(ptr noundef nonnull align 8 dereferenceable(40) %10, ptr noundef nonnull align 8 dereferenceable(40) %2)
          to label %11 unwind label %24

11:                                               ; preds = %6
  invoke void @_ZN5Yosys5RTLIL5ConstC1ENS0_5StateEi(ptr noundef nonnull align 8 dereferenceable(40) %0, i8 noundef zeroext 0, i32 noundef %5)
          to label %12 unwind label %26

12:                                               ; preds = %11
  %13 = invoke noundef i32 @_ZNK5Yosys5RTLIL5Const4sizeEv(ptr noundef nonnull align 8 dereferenceable(40) %9)
          to label %_ZN5Yosys7GetSizeINS_5RTLIL5ConstEEEiRKT_.exit unwind label %28

_ZN5Yosys7GetSizeINS_5RTLIL5ConstEEEiRKT_.exit:   ; preds = %12
  %14 = invoke noundef i32 @_ZNK5Yosys5RTLIL5Const4sizeEv(ptr noundef nonnull align 8 dereferenceable(40) %10)
          to label %_ZN5Yosys7GetSizeINS_5RTLIL5ConstEEEiRKT_.exit29 unwind label %30

_ZN5Yosys7GetSizeINS_5RTLIL5ConstEEEiRKT_.exit29: ; preds = %_ZN5Yosys7GetSizeINS_5RTLIL5ConstEEEiRKT_.exit
  %.sroa.speculated = call i32 @llvm.smax.i32(i32 %13, i32 %14)
  %15 = and i1 %3, %4
  invoke fastcc void @_ZN5YosysL9extend_u0ERNS_5RTLIL5ConstEib(ptr noundef nonnull align 8 dereferenceable(40) %9, i32 noundef %.sroa.speculated, i1 noundef zeroext %15)
          to label %16 unwind label %32

16:                                               ; preds = %_ZN5Yosys7GetSizeINS_5RTLIL5ConstEEEiRKT_.exit29
  invoke fastcc void @_ZN5YosysL9extend_u0ERNS_5RTLIL5ConstEib(ptr noundef nonnull align 8 dereferenceable(40) %10, i32 noundef %.sroa.speculated, i1 noundef zeroext %15)
          to label %.preheader unwind label %32

.preheader:                                       ; preds = %16
  %17 = getelementptr inbounds nuw i8, ptr %8, i64 8
  %18 = getelementptr inbounds nuw i8, ptr %7, i64 8
  br label %19

19:                                               ; preds = %40, %.preheader
  %indvars.iv = phi i64 [ %indvars.iv.next, %40 ], [ 0, %.preheader ]
  %20 = invoke noundef i32 @_ZNK5Yosys5RTLIL5Const4sizeEv(ptr noundef nonnull align 8 dereferenceable(40) %9)
          to label %21 unwind label %34

21:                                               ; preds = %19
  %22 = sext i32 %20 to i64
  %23 = icmp slt i64 %indvars.iv, %22
  br i1 %23, label %36, label %.critedge

24:                                               ; preds = %6
  %25 = landingpad { ptr, i32 }
          cleanup
  br label %46

26:                                               ; preds = %11
  %27 = landingpad { ptr, i32 }
          cleanup
  br label %45

28:                                               ; preds = %12
  %29 = landingpad { ptr, i32 }
          cleanup
  br label %44

30:                                               ; preds = %_ZN5Yosys7GetSizeINS_5RTLIL5ConstEEEiRKT_.exit
  %31 = landingpad { ptr, i32 }
          cleanup
  br label %44

32:                                               ; preds = %.critedge, %16, %_ZN5Yosys7GetSizeINS_5RTLIL5ConstEEEiRKT_.exit29
  %33 = landingpad { ptr, i32 }
          cleanup
  br label %44

34:                                               ; preds = %38, %36, %19
  %35 = landingpad { ptr, i32 }
          cleanup
  br label %44

36:                                               ; preds = %21
  call void @llvm.lifetime.start.p0(i64 16, ptr nonnull %8) #19
  store ptr %9, ptr %8, align 8, !tbaa !20
  store i64 %indvars.iv, ptr %17, align 8, !tbaa !22
  %37 = invoke noundef zeroext i8 @_ZNK5Yosys5RTLIL5Const14const_iteratordeEv(ptr noundef nonnull align 8 dereferenceable(16) %8)
          to label %38 unwind label %34

38:                                               ; preds = %36
  call void @llvm.lifetime.end.p0(i64 16, ptr nonnull %8) #19
  call void @llvm.lifetime.start.p0(i64 16, ptr nonnull %7) #19
  store ptr %10, ptr %7, align 8, !tbaa !20
  store i64 %indvars.iv, ptr %18, align 8, !tbaa !22
  %39 = invoke noundef zeroext i8 @_ZNK5Yosys5RTLIL5Const14const_iteratordeEv(ptr noundef nonnull align 8 dereferenceable(16) %7)
          to label %40 unwind label %34

40:                                               ; preds = %38
  call void @llvm.lifetime.end.p0(i64 16, ptr nonnull %7) #19
  %.not = icmp eq i8 %37, %39
  %indvars.iv.next = add nuw nsw i64 %indvars.iv, 1
  br i1 %.not, label %19, label %.loopexit, !llvm.loop !52

.critedge:                                        ; preds = %21
  %41 = invoke noundef nonnull align 8 dereferenceable(24) ptr @_ZN5Yosys5RTLIL5Const4bitsEv(ptr noundef nonnull align 8 dereferenceable(40) %0)
          to label %42 unwind label %32

42:                                               ; preds = %.critedge
  %43 = load ptr, ptr %41, align 8, !tbaa !28
  store i8 1, ptr %43, align 1, !tbaa !11
  br label %.loopexit

44:                                               ; preds = %28, %30, %34, %32
  %.pn25 = phi { ptr, i32 } [ %33, %32 ], [ %35, %34 ], [ %31, %30 ], [ %29, %28 ]
  call void @_ZN5Yosys5RTLIL5ConstD1Ev(ptr noundef nonnull align 8 dereferenceable(40) %0) #19
  br label %45

.loopexit:                                        ; preds = %40, %42
  call void @_ZN5Yosys5RTLIL5ConstD1Ev(ptr noundef nonnull align 8 dereferenceable(40) %10) #19
  call void @llvm.lifetime.end.p0(i64 40, ptr nonnull %10) #19
  call void @_ZN5Yosys5RTLIL5ConstD1Ev(ptr noundef nonnull align 8 dereferenceable(40) %9) #19
  call void @llvm.lifetime.end.p0(i64 40, ptr nonnull %9) #19
  ret void

45:                                               ; preds = %44, %26
  %.pn25.pn = phi { ptr, i32 } [ %.pn25, %44 ], [ %27, %26 ]
  call void @_ZN5Yosys5RTLIL5ConstD1Ev(ptr noundef nonnull align 8 dereferenceable(40) %10) #19
  br label %46

46:                                               ; preds = %45, %24
  %.pn25.pn.pn = phi { ptr, i32 } [ %.pn25.pn, %45 ], [ %25, %24 ]
  call void @llvm.lifetime.end.p0(i64 40, ptr nonnull %10) #19
  call void @_ZN5Yosys5RTLIL5ConstD1Ev(ptr noundef nonnull align 8 dereferenceable(40) %9) #19
  call void @llvm.lifetime.end.p0(i64 40, ptr nonnull %9) #19
  resume { ptr, i32 } %.pn25.pn.pn
}